target datalayout = "e-m:e-p270:32:32-p271:32:32-p272:64:64-i64:64-i128:128-f80:128-n8:16:32:64-S128"
target triple = "x86_64-pc-linux-gnu"

%struct.rand_loop_t = type { %struct.rb_random_struct, i32, i32, ptr }
%struct.rb_random_struct = type { i64 }

; Function Attrs: nounwind sspstrong uwtable
define internal i32 @loop_get_int32(ptr noundef %0) #0 {
  %2 = alloca i32, align 4
  %3 = alloca ptr, align 8
  %4 = alloca ptr, align 8
  %5 = alloca i32, align 4
  %6 = alloca i32, align 4
  store ptr %0, ptr %3, align 8, !tbaa !24
  call void @llvm.lifetime.start.p0(i64 8, ptr %4) #13
  %7 = load ptr, ptr %3, align 8, !tbaa !24
  store ptr %7, ptr %4, align 8, !tbaa !10
  %8 = load ptr, ptr %4, align 8, !tbaa !10
  %9 = getelementptr inbounds nuw %struct.rand_loop_t, ptr %8, i32 0, i32 2
  %10 = load i32, ptr %9, align 4, !tbaa !28
  %11 = load ptr, ptr %4, align 8, !tbaa !10
  %12 = getelementptr inbounds nuw %struct.rand_loop_t, ptr %11, i32 0, i32 1
  %13 = load i32, ptr %12, align 8, !tbaa !23
  %14 = icmp ult i32 %10, %13
  br i1 %14, label %15, label %38

15:                                               ; preds = %1
  call void @llvm.lifetime.start.p0(i64 4, ptr %5) #13
  %16 = load ptr, ptr %4, align 8, !tbaa !10
  %17 = getelementptr inbounds nuw %struct.rand_loop_t, ptr %16, i32 0, i32 3
  %18 = load ptr, ptr %17, align 8, !tbaa !18
  %19 = load ptr, ptr %4, align 8, !tbaa !10
  %20 = getelementptr inbounds nuw %struct.rand_loop_t, ptr %19, i32 0, i32 2
  %21 = load i32, ptr %20, align 4, !tbaa !28
  %22 = add i32 %21, 1
  store i32 %22, ptr %20, align 4, !tbaa !28
  %23 = zext i32 %21 to i64
  %24 = getelementptr inbounds nuw i32, ptr %18, i64 %23
  %25 = load i32, ptr %24, align 4, !tbaa !27
  store i32 %25, ptr %5, align 4, !tbaa !27
  %26 = load ptr, ptr %4, align 8, !tbaa !10
  %27 = getelementptr inbounds nuw %struct.rand_loop_t, ptr %26, i32 0, i32 2
  %28 = load i32, ptr %27, align 4, !tbaa !28
  %29 = load ptr, ptr %4, align 8, !tbaa !10
  %30 = getelementptr inbounds nuw %struct.rand_loop_t, ptr %29, i32 0, i32 1
  %31 = load i32, ptr %30, align 8, !tbaa !23
  %32 = icmp uge i32 %28, %31
  br i1 %32, label %33, label %36

33:                                               ; preds = %15
  %34 = load ptr, ptr %4, align 8, !tbaa !10
  %35 = getelementptr inbounds nuw %struct.rand_loop_t, ptr %34, i32 0, i32 2
  store i32 0, ptr %35, align 4, !tbaa !28
  br label %36

36:                                               ; preds = %33, %15
  %37 = load i32, ptr %5, align 4, !tbaa !27
  store i32 %37, ptr %2, align 4
  store i32 1, ptr %6, align 4
  call void @llvm.lifetime.end.p0(i64 4, ptr %5) #13
  br label %53

38:                                               ; preds = %1
  %39 = load ptr, ptr %4, align 8, !tbaa !10
  %40 = getelementptr inbounds nuw %struct.rand_loop_t, ptr %39, i32 0, i32 1
  %41 = load i32, ptr %40, align 8, !tbaa !23
  %42 = icmp ne i32 %41, 0
  br i1 %42, label %43, label %51

43:                                               ; preds = %38
  %44 = load ptr, ptr %4, align 8, !tbaa !10
  %45 = getelementptr inbounds nuw %struct.rand_loop_t, ptr %44, i32 0, i32 3
  %46 = load ptr, ptr %45, align 8, !tbaa !18
  %47 = load ptr, ptr %4, align 8, !tbaa !10
  %48 = getelementptr inbounds nuw %struct.rand_loop_t, ptr %47, i32 0, i32 2
  store i32 0, ptr %48, align 4, !tbaa !28
  %49 = getelementptr inbounds nuw i32, ptr %46, i64 0
  %50 = load i32, ptr %49, align 4, !tbaa !27
  store i32 %50, ptr %2, align 4
  store i32 1, ptr %6, align 4
  br label %53

51:                                               ; preds = %38
  br label %52

52:                                               ; preds = %51
  store i32 0, ptr %2, align 4
  store i32 1, ptr %6, align 4
  br label %53

53:                                               ; preds = %52, %43, %36
  call void @llvm.lifetime.end.p0(i64 8, ptr %4) #13
  %54 = load i32, ptr %2, align 4
  ret i32 %54
}