; Function Attrs: mustprogress nofree norecurse nosync nounwind sspstrong willreturn memory(read, argmem: readwrite, inaccessiblemem: none) uwtable
define internal i32 @loop_get_int32(ptr noundef captures(none) %0) #3 {
  %2 = getelementptr inbounds nuw i8, ptr %0, i64 12
  %3 = load i32, ptr %2, align 4, !tbaa !21
  %4 = getelementptr inbounds nuw i8, ptr %0, i64 8
  %5 = load i32, ptr %4, align 8, !tbaa !20
  %6 = icmp ult i32 %3, %5
  br i1 %6, label %7, label %14

7:                                                ; preds = %1
  %8 = getelementptr inbounds nuw i8, ptr %0, i64 16
  %9 = load ptr, ptr %8, align 8, !tbaa !15
  %10 = add nuw i32 %3, 1
  store i32 %10, ptr %2, align 4, !tbaa !21
  %11 = zext i32 %3 to i64
  %12 = getelementptr inbounds nuw i32, ptr %9, i64 %11
  %13 = load i32, ptr %12, align 4, !tbaa !22
  %.not14 = icmp ult i32 %10, %5
  %spec.store.select = select i1 %.not14, i32 %10, i32 0
  store i32 %spec.store.select, ptr %2, align 4
  br label %19

14:                                               ; preds = %1
  %.not = icmp eq i32 %5, 0
  br i1 %.not, label %19, label %15

15:                                               ; preds = %14
  %16 = getelementptr inbounds nuw i8, ptr %0, i64 16
  %17 = load ptr, ptr %16, align 8, !tbaa !15
  store i32 0, ptr %2, align 4, !tbaa !21
  %18 = load i32, ptr %17, align 4, !tbaa !22
  br label %19

19:                                               ; preds = %14, %15, %7
  %.0 = phi i32 [ %13, %7 ], [ %18, %15 ], [ 0, %14 ]
  ret i32 %.0
}